target datalayout = "e-m:e-p270:32:32-p271:32:32-p272:64:64-i64:64-i128:128-f80:128-n8:16:32:64-S128"
target triple = "x86_64-pc-linux-gnu"

%struct.evp_pkey_asn1_method_st = type { i32, i32, i64, ptr, ptr, ptr, ptr, ptr, ptr, ptr, ptr, ptr, ptr, ptr, ptr, ptr, ptr, ptr, ptr, ptr, ptr, ptr, ptr, ptr, ptr, ptr, ptr, ptr, ptr, ptr, ptr, ptr, ptr, ptr, ptr, ptr, ptr, ptr, ptr, ptr, ptr }
%struct.evp_pkey_st = type { i32, i32, ptr, ptr, ptr, %union.legacy_pkey_st, %union.legacy_pkey_st, %struct.CRYPTO_REF_COUNT, ptr, ptr, i32, i8, %struct.crypto_ex_data_st, ptr, ptr, i64, ptr, i64, %struct.anon }
%union.legacy_pkey_st = type { ptr }
%struct.CRYPTO_REF_COUNT = type { i32 }
%struct.crypto_ex_data_st = type { ptr, ptr }
%struct.anon = type { i32, i32, i32 }
%struct.ecx_key_st = type { ptr, ptr, i8, [57 x i8], ptr, i64, i32, %struct.CRYPTO_REF_COUNT }

@.str.9 = private unnamed_addr constant [26 x i8] c"%*s<INVALID PRIVATE KEY>\0A\00", align 1
@.str.10 = private unnamed_addr constant [1 x i8] zeroinitializer, align 1
@.str.11 = private unnamed_addr constant [20 x i8] c"%*s%s Private-Key:\0A\00", align 1
@.str.12 = private unnamed_addr constant [10 x i8] c"%*spriv:\0A\00", align 1
@.str.13 = private unnamed_addr constant [25 x i8] c"%*s<INVALID PUBLIC KEY>\0A\00", align 1
@.str.14 = private unnamed_addr constant [19 x i8] c"%*s%s Public-Key:\0A\00", align 1
@.str.15 = private unnamed_addr constant [9 x i8] c"%*spub:\0A\00", align 1

; Function Attrs: nounwind uwtable
define internal i32 @ecx_key_print(ptr noundef %0, ptr noundef %1, i32 noundef %2, ptr noundef %3, i32 noundef %4) #0 {
  %6 = alloca i32, align 4
  %7 = alloca ptr, align 8
  %8 = alloca ptr, align 8
  %9 = alloca i32, align 4
  %10 = alloca ptr, align 8
  %11 = alloca i32, align 4
  %12 = alloca ptr, align 8
  %13 = alloca ptr, align 8
  %14 = alloca i32, align 4
  store ptr %0, ptr %7, align 8, !tbaa !34
  store ptr %1, ptr %8, align 8, !tbaa !3
  store i32 %2, ptr %9, align 4, !tbaa !10
  store ptr %3, ptr %10, align 8, !tbaa !36
  store i32 %4, ptr %11, align 4, !tbaa !10
  call void @llvm.lifetime.start.p0(i64 8, ptr %12) #4
  %15 = load ptr, ptr %8, align 8, !tbaa !3
  %16 = getelementptr inbounds nuw %struct.evp_pkey_st, ptr %15, i32 0, i32 5
  %17 = load ptr, ptr %16, align 8, !tbaa !33
  store ptr %17, ptr %12, align 8, !tbaa !31
  call void @llvm.lifetime.start.p0(i64 8, ptr %13) #4
  %18 = load ptr, ptr %8, align 8, !tbaa !3
  %19 = getelementptr inbounds nuw %struct.evp_pkey_st, ptr %18, i32 0, i32 2
  %20 = load ptr, ptr %19, align 8, !tbaa !16
  %21 = getelementptr inbounds nuw %struct.evp_pkey_asn1_method_st, ptr %20, i32 0, i32 0
  %22 = load i32, ptr %21, align 8, !tbaa !29
  %23 = call ptr @OBJ_nid2ln(i32 noundef %22)
  store ptr %23, ptr %13, align 8, !tbaa !14
  %24 = load i32, ptr %11, align 4, !tbaa !10
  %25 = icmp eq i32 %24, 1
  br i1 %25, label %26, label %90

26:                                               ; preds = %5
  %27 = load ptr, ptr %12, align 8, !tbaa !31
  %28 = icmp eq ptr %27, null
  br i1 %28, label %34, label %29

29:                                               ; preds = %26
  %30 = load ptr, ptr %12, align 8, !tbaa !31
  %31 = getelementptr inbounds nuw %struct.ecx_key_st, ptr %30, i32 0, i32 4
  %32 = load ptr, ptr %31, align 8, !tbaa !40
  %33 = icmp eq ptr %32, null
  br i1 %33, label %34, label %41

34:                                               ; preds = %29, %26
  %35 = load ptr, ptr %7, align 8, !tbaa !34
  %36 = load i32, ptr %9, align 4, !tbaa !10
  %37 = call i32 (ptr, ptr, ...) @BIO_printf(ptr noundef %35, ptr noundef @.str.9, i32 noundef %36, ptr noundef @.str.10)
  %38 = icmp sle i32 %37, 0
  br i1 %38, label %39, label %40

39:                                               ; preds = %34
  store i32 0, ptr %6, align 4
  store i32 1, ptr %14, align 4
  br label %150

40:                                               ; preds = %34
  store i32 1, ptr %6, align 4
  store i32 1, ptr %14, align 4
  br label %150

41:                                               ; preds = %29
  %42 = load ptr, ptr %7, align 8, !tbaa !34
  %43 = load i32, ptr %9, align 4, !tbaa !10
  %44 = load ptr, ptr %13, align 8, !tbaa !14
  %45 = call i32 (ptr, ptr, ...) @BIO_printf(ptr noundef %42, ptr noundef @.str.11, i32 noundef %43, ptr noundef @.str.10, ptr noundef %44)
  %46 = icmp sle i32 %45, 0
  br i1 %46, label %47, label %48

47:                                               ; preds = %41
  store i32 0, ptr %6, align 4
  store i32 1, ptr %14, align 4
  br label %150

48:                                               ; preds = %41
  %49 = load ptr, ptr %7, align 8, !tbaa !34
  %50 = load i32, ptr %9, align 4, !tbaa !10
  %51 = call i32 (ptr, ptr, ...) @BIO_printf(ptr noundef %49, ptr noundef @.str.12, i32 noundef %50, ptr noundef @.str.10)
  %52 = icmp sle i32 %51, 0
  br i1 %52, label %53, label %54

53:                                               ; preds = %48
  store i32 0, ptr %6, align 4
  store i32 1, ptr %14, align 4
  br label %150

54:                                               ; preds = %48
  %55 = load ptr, ptr %7, align 8, !tbaa !34
  %56 = load ptr, ptr %12, align 8, !tbaa !31
  %57 = getelementptr inbounds nuw %struct.ecx_key_st, ptr %56, i32 0, i32 4
  %58 = load ptr, ptr %57, align 8, !tbaa !40
  %59 = load ptr, ptr %8, align 8, !tbaa !3
  %60 = getelementptr inbounds nuw %struct.evp_pkey_st, ptr %59, i32 0, i32 2
  %61 = load ptr, ptr %60, align 8, !tbaa !16
  %62 = getelementptr inbounds nuw %struct.evp_pkey_asn1_method_st, ptr %61, i32 0, i32 0
  %63 = load i32, ptr %62, align 8, !tbaa !29
  %64 = icmp eq i32 %63, 1034
  br i1 %64, label %72, label %65

65:                                               ; preds = %54
  %66 = load ptr, ptr %8, align 8, !tbaa !3
  %67 = getelementptr inbounds nuw %struct.evp_pkey_st, ptr %66, i32 0, i32 2
  %68 = load ptr, ptr %67, align 8, !tbaa !16
  %69 = getelementptr inbounds nuw %struct.evp_pkey_asn1_method_st, ptr %68, i32 0, i32 0
  %70 = load i32, ptr %69, align 8, !tbaa !29
  %71 = icmp eq i32 %70, 1087
  br i1 %71, label %72, label %73

72:                                               ; preds = %65, %54
  br label %81

73:                                               ; preds = %65
  %74 = load ptr, ptr %8, align 8, !tbaa !3
  %75 = getelementptr inbounds nuw %struct.evp_pkey_st, ptr %74, i32 0, i32 2
  %76 = load ptr, ptr %75, align 8, !tbaa !16
  %77 = getelementptr inbounds nuw %struct.evp_pkey_asn1_method_st, ptr %76, i32 0, i32 0
  %78 = load i32, ptr %77, align 8, !tbaa !29
  %79 = icmp eq i32 %78, 1035
  %80 = select i1 %79, i32 56, i32 57
  br label %81

81:                                               ; preds = %73, %72
  %82 = phi i32 [ 32, %72 ], [ %80, %73 ]
  %83 = sext i32 %82 to i64
  %84 = load i32, ptr %9, align 4, !tbaa !10
  %85 = add nsw i32 %84, 4
  %86 = call i32 @ASN1_buf_print(ptr noundef %55, ptr noundef %58, i64 noundef %83, i32 noundef %85)
  %87 = icmp eq i32 %86, 0
  br i1 %87, label %88, label %89

88:                                               ; preds = %81
  store i32 0, ptr %6, align 4
  store i32 1, ptr %14, align 4
  br label %150

89:                                               ; preds = %81
  br label %108

90:                                               ; preds = %5
  %91 = load ptr, ptr %12, align 8, !tbaa !31
  %92 = icmp eq ptr %91, null
  br i1 %92, label %93, label %100

93:                                               ; preds = %90
  %94 = load ptr, ptr %7, align 8, !tbaa !34
  %95 = load i32, ptr %9, align 4, !tbaa !10
  %96 = call i32 (ptr, ptr, ...) @BIO_printf(ptr noundef %94, ptr noundef @.str.13, i32 noundef %95, ptr noundef @.str.10)
  %97 = icmp sle i32 %96, 0
  br i1 %97, label %98, label %99

98:                                               ; preds = %93
  store i32 0, ptr %6, align 4
  store i32 1, ptr %14, align 4
  br label %150

99:                                               ; preds = %93
  store i32 1, ptr %6, align 4
  store i32 1, ptr %14, align 4
  br label %150

100:                                              ; preds = %90
  %101 = load ptr, ptr %7, align 8, !tbaa !34
  %102 = load i32, ptr %9, align 4, !tbaa !10
  %103 = load ptr, ptr %13, align 8, !tbaa !14
  %104 = call i32 (ptr, ptr, ...) @BIO_printf(ptr noundef %101, ptr noundef @.str.14, i32 noundef %102, ptr noundef @.str.10, ptr noundef %103)
  %105 = icmp sle i32 %104, 0
  br i1 %105, label %106, label %107

106:                                              ; preds = %100
  store i32 0, ptr %6, align 4
  store i32 1, ptr %14, align 4
  br label %150

107:                                              ; preds = %100
  br label %108

108:                                              ; preds = %107, %89
  %109 = load ptr, ptr %7, align 8, !tbaa !34
  %110 = load i32, ptr %9, align 4, !tbaa !10
  %111 = call i32 (ptr, ptr, ...) @BIO_printf(ptr noundef %109, ptr noundef @.str.15, i32 noundef %110, ptr noundef @.str.10)
  %112 = icmp sle i32 %111, 0
  br i1 %112, label %113, label %114

113:                                              ; preds = %108
  store i32 0, ptr %6, align 4
  store i32 1, ptr %14, align 4
  br label %150

114:                                              ; preds = %108
  %115 = load ptr, ptr %7, align 8, !tbaa !34
  %116 = load ptr, ptr %12, align 8, !tbaa !31
  %117 = getelementptr inbounds nuw %struct.ecx_key_st, ptr %116, i32 0, i32 3
  %118 = getelementptr inbounds [57 x i8], ptr %117, i64 0, i64 0
  %119 = load ptr, ptr %8, align 8, !tbaa !3
  %120 = getelementptr inbounds nuw %struct.evp_pkey_st, ptr %119, i32 0, i32 2
  %121 = load ptr, ptr %120, align 8, !tbaa !16
  %122 = getelementptr inbounds nuw %struct.evp_pkey_asn1_method_st, ptr %121, i32 0, i32 0
  %123 = load i32, ptr %122, align 8, !tbaa !29
  %124 = icmp eq i32 %123, 1034
  br i1 %124, label %132, label %125

125:                                              ; preds = %114
  %126 = load ptr, ptr %8, align 8, !tbaa !3
  %127 = getelementptr inbounds nuw %struct.evp_pkey_st, ptr %126, i32 0, i32 2
  %128 = load ptr, ptr %127, align 8, !tbaa !16
  %129 = getelementptr inbounds nuw %struct.evp_pkey_asn1_method_st, ptr %128, i32 0, i32 0
  %130 = load i32, ptr %129, align 8, !tbaa !29
  %131 = icmp eq i32 %130, 1087
  br i1 %131, label %132, label %133

132:                                              ; preds = %125, %114
  br label %141

133:                                              ; preds = %125
  %134 = load ptr, ptr %8, align 8, !tbaa !3
  %135 = getelementptr inbounds nuw %struct.evp_pkey_st, ptr %134, i32 0, i32 2
  %136 = load ptr, ptr %135, align 8, !tbaa !16
  %137 = getelementptr inbounds nuw %struct.evp_pkey_asn1_method_st, ptr %136, i32 0, i32 0
  %138 = load i32, ptr %137, align 8, !tbaa !29
  %139 = icmp eq i32 %138, 1035
  %140 = select i1 %139, i32 56, i32 57
  br label %141

141:                                              ; preds = %133, %132
  %142 = phi i32 [ 32, %132 ], [ %140, %133 ]
  %143 = sext i32 %142 to i64
  %144 = load i32, ptr %9, align 4, !tbaa !10
  %145 = add nsw i32 %144, 4
  %146 = call i32 @ASN1_buf_print(ptr noundef %115, ptr noundef %118, i64 noundef %143, i32 noundef %145)
  %147 = icmp eq i32 %146, 0
  br i1 %147, label %148, label %149

148:                                              ; preds = %141
  store i32 0, ptr %6, align 4
  store i32 1, ptr %14, align 4
  br label %150

149:                                              ; preds = %141
  store i32 1, ptr %6, align 4
  store i32 1, ptr %14, align 4
  br label %150

150:                                              ; preds = %149, %148, %113, %106, %99, %98, %88, %53, %47, %40, %39
  call void @llvm.lifetime.end.p0(i64 8, ptr %13) #4
  call void @llvm.lifetime.end.p0(i64 8, ptr %12) #4
  %151 = load i32, ptr %6, align 4
  ret i32 %151
}