; Function Attrs: nounwind uwtable
define internal fastcc range(i32 0, 2) i32 @ecx_key_print(ptr noundef %0, ptr noundef readonly captures(none) %1, i32 noundef %2, i32 noundef range(i32 0, 2) %3) unnamed_addr #0 {
  %5 = getelementptr inbounds nuw i8, ptr %1, i64 32
  %6 = load ptr, ptr %5, align 8, !tbaa !27
  %7 = getelementptr inbounds nuw i8, ptr %1, i64 8
  %8 = load ptr, ptr %7, align 8, !tbaa !12
  %9 = load i32, ptr %8, align 8, !tbaa !25
  %10 = tail call ptr @OBJ_nid2ln(i32 noundef %9) #8
  %.not = icmp eq i32 %3, 0
  %11 = icmp eq ptr %6, null
  br i1 %.not, label %38, label %12

12:                                               ; preds = %4
  br i1 %11, label %17, label %13

13:                                               ; preds = %12
  %14 = getelementptr inbounds nuw i8, ptr %6, i64 80
  %15 = load ptr, ptr %14, align 8, !tbaa !28
  %16 = icmp eq ptr %15, null
  br i1 %16, label %17, label %20

17:                                               ; preds = %13, %12
  %18 = tail call i32 (ptr, ptr, ...) @BIO_printf(ptr noundef %0, ptr noundef nonnull @.str.9, i32 noundef %2, ptr noundef nonnull @.str.10) #8
  %19 = icmp sgt i32 %18, 0
  br label %60

20:                                               ; preds = %13
  %21 = tail call i32 (ptr, ptr, ...) @BIO_printf(ptr noundef %0, ptr noundef nonnull @.str.11, i32 noundef %2, ptr noundef nonnull @.str.10, ptr noundef %10) #8
  %22 = icmp slt i32 %21, 1
  br i1 %22, label %60, label %23

23:                                               ; preds = %20
  %24 = tail call i32 (ptr, ptr, ...) @BIO_printf(ptr noundef %0, ptr noundef nonnull @.str.12, i32 noundef %2, ptr noundef nonnull @.str.10) #8
  %25 = icmp slt i32 %24, 1
  br i1 %25, label %60, label %26

26:                                               ; preds = %23
  %27 = load ptr, ptr %14, align 8, !tbaa !28
  %28 = load ptr, ptr %7, align 8, !tbaa !12
  %29 = load i32, ptr %28, align 8, !tbaa !25
  switch i32 %29, label %30 [
    i32 1034, label %33
    i32 1087, label %33
  ]

30:                                               ; preds = %26
  %31 = icmp eq i32 %29, 1035
  %32 = select i1 %31, i64 56, i64 57
  br label %33

33:                                               ; preds = %26, %26, %30
  %34 = phi i64 [ %32, %30 ], [ 32, %26 ], [ 32, %26 ]
  %35 = add nsw i32 %2, 4
  %36 = tail call i32 @ASN1_buf_print(ptr noundef %0, ptr noundef %27, i64 noundef %34, i32 noundef %35) #8
  %37 = icmp eq i32 %36, 0
  br i1 %37, label %60, label %45

38:                                               ; preds = %4
  br i1 %11, label %39, label %42

39:                                               ; preds = %38
  %40 = tail call i32 (ptr, ptr, ...) @BIO_printf(ptr noundef %0, ptr noundef nonnull @.str.13, i32 noundef %2, ptr noundef nonnull @.str.10) #8
  %41 = icmp sgt i32 %40, 0
  br label %60

42:                                               ; preds = %38
  %43 = tail call i32 (ptr, ptr, ...) @BIO_printf(ptr noundef %0, ptr noundef nonnull @.str.14, i32 noundef %2, ptr noundef nonnull @.str.10, ptr noundef %10) #8
  %44 = icmp slt i32 %43, 1
  br i1 %44, label %60, label %45

45:                                               ; preds = %42, %33
  %46 = tail call i32 (ptr, ptr, ...) @BIO_printf(ptr noundef %0, ptr noundef nonnull @.str.15, i32 noundef %2, ptr noundef nonnull @.str.10) #8
  %47 = icmp slt i32 %46, 1
  br i1 %47, label %60, label %48

48:                                               ; preds = %45
  %49 = getelementptr inbounds nuw i8, ptr %6, i64 17
  %50 = load ptr, ptr %7, align 8, !tbaa !12
  %51 = load i32, ptr %50, align 8, !tbaa !25
  switch i32 %51, label %52 [
    i32 1034, label %55
    i32 1087, label %55
  ]

52:                                               ; preds = %48
  %53 = icmp eq i32 %51, 1035
  %54 = select i1 %53, i64 56, i64 57
  br label %55

55:                                               ; preds = %48, %48, %52
  %56 = phi i64 [ %54, %52 ], [ 32, %48 ], [ 32, %48 ]
  %57 = add nsw i32 %2, 4
  %58 = tail call i32 @ASN1_buf_print(ptr noundef %0, ptr noundef nonnull %49, i64 noundef %56, i32 noundef %57) #8
  %59 = icmp ne i32 %58, 0
  br label %60

60:                                               ; preds = %55, %45, %42, %39, %33, %23, %20, %17
  %.0.shrunk = phi i1 [ %19, %17 ], [ false, %20 ], [ false, %23 ], [ false, %33 ], [ %41, %39 ], [ false, %42 ], [ false, %45 ], [ %59, %55 ]
  %.0 = zext i1 %.0.shrunk to i32
  ret i32 %.0
}